target datalayout = "e-m:e-p270:32:32-p271:32:32-p272:64:64-i64:64-i128:128-f80:128-n8:16:32:64-S128"
target triple = "x86_64-pc-linux-gnu"

%struct.mbedtls_net_context = type { i32 }
%struct.addrinfo = type { i32, i32, i32, i32, i32, ptr, ptr, ptr }

; Function Attrs: nounwind uwtable
define internal i32 @net_prepare() #0 {
  %1 = call ptr @__sysv_signal(i32 noundef 13, ptr noundef inttoptr (i64 1 to ptr)) #7
  ret i32 0
}

; Function Attrs: nounwind uwtable
define hidden i32 @mbedtls_net_bind(ptr noundef %0, ptr noundef %1, ptr noundef %2, i32 noundef %3) #0 {
  %5 = alloca i32, align 4
  %6 = alloca ptr, align 8
  %7 = alloca ptr, align 8
  %8 = alloca ptr, align 8
  %9 = alloca i32, align 4
  %10 = alloca i32, align 4
  %11 = alloca i32, align 4
  %12 = alloca %struct.addrinfo, align 8
  %13 = alloca ptr, align 8
  %14 = alloca ptr, align 8
  %15 = alloca i32, align 4
  store ptr %0, ptr %6, align 8, !tbaa !3
  store ptr %1, ptr %7, align 8, !tbaa !11
  store ptr %2, ptr %8, align 8, !tbaa !11
  store i32 %3, ptr %9, align 4, !tbaa !13
  call void @llvm.lifetime.start.p0(i64 4, ptr %10) #7
  call void @llvm.lifetime.start.p0(i64 4, ptr %11) #7
  call void @llvm.lifetime.start.p0(i64 48, ptr %12) #7
  call void @llvm.lifetime.start.p0(i64 8, ptr %13) #7
  call void @llvm.lifetime.start.p0(i64 8, ptr %14) #7
  %16 = call i32 @net_prepare()
  store i32 %16, ptr %11, align 4, !tbaa !13
  %17 = icmp ne i32 %16, 0
  br i1 %17, label %18, label %20

18:                                               ; preds = %4
  %19 = load i32, ptr %11, align 4, !tbaa !13
  store i32 %19, ptr %5, align 4
  store i32 1, ptr %15, align 4
  br label %114

20:                                               ; preds = %4
  call void @llvm.memset.p0.i64(ptr align 8 %12, i8 0, i64 48, i1 false)
  %21 = getelementptr inbounds nuw %struct.addrinfo, ptr %12, i32 0, i32 1
  store i32 0, ptr %21, align 4, !tbaa !14
  %22 = load i32, ptr %9, align 4, !tbaa !13
  %23 = icmp eq i32 %22, 1
  %24 = select i1 %23, i32 2, i32 1
  %25 = getelementptr inbounds nuw %struct.addrinfo, ptr %12, i32 0, i32 2
  store i32 %24, ptr %25, align 8, !tbaa !18
  %26 = load i32, ptr %9, align 4, !tbaa !13
  %27 = icmp eq i32 %26, 1
  %28 = select i1 %27, i32 17, i32 6
  %29 = getelementptr inbounds nuw %struct.addrinfo, ptr %12, i32 0, i32 3
  store i32 %28, ptr %29, align 4, !tbaa !19
  %30 = load ptr, ptr %7, align 8, !tbaa !11
  %31 = icmp eq ptr %30, null
  br i1 %31, label %32, label %34

32:                                               ; preds = %20
  %33 = getelementptr inbounds nuw %struct.addrinfo, ptr %12, i32 0, i32 0
  store i32 1, ptr %33, align 8, !tbaa !26
  br label %34

34:                                               ; preds = %32, %20
  %35 = load ptr, ptr %7, align 8, !tbaa !11
  %36 = load ptr, ptr %8, align 8, !tbaa !11
  %37 = call i32 @getaddrinfo(ptr noundef %35, ptr noundef %36, ptr noundef %12, ptr noundef %13)
  %38 = icmp ne i32 %37, 0
  br i1 %38, label %39, label %40

39:                                               ; preds = %34
  store i32 -82, ptr %5, align 4
  store i32 1, ptr %15, align 4
  br label %114

40:                                               ; preds = %34
  store i32 -82, ptr %11, align 4, !tbaa !13
  %41 = load ptr, ptr %13, align 8, !tbaa !20
  store ptr %41, ptr %14, align 8, !tbaa !20
  br label %42

42:                                               ; preds = %107, %40
  %43 = load ptr, ptr %14, align 8, !tbaa !20
  %44 = icmp ne ptr %43, null
  br i1 %44, label %45, label %111

45:                                               ; preds = %42
  %46 = load ptr, ptr %14, align 8, !tbaa !20
  %47 = getelementptr inbounds nuw %struct.addrinfo, ptr %46, i32 0, i32 1
  %48 = load i32, ptr %47, align 4, !tbaa !14
  %49 = load ptr, ptr %14, align 8, !tbaa !20
  %50 = getelementptr inbounds nuw %struct.addrinfo, ptr %49, i32 0, i32 2
  %51 = load i32, ptr %50, align 8, !tbaa !18
  %52 = load ptr, ptr %14, align 8, !tbaa !20
  %53 = getelementptr inbounds nuw %struct.addrinfo, ptr %52, i32 0, i32 3
  %54 = load i32, ptr %53, align 4, !tbaa !19
  %55 = call i32 @socket(i32 noundef %48, i32 noundef %51, i32 noundef %54) #7
  %56 = load ptr, ptr %6, align 8, !tbaa !3
  %57 = getelementptr inbounds nuw %struct.mbedtls_net_context, ptr %56, i32 0, i32 0
  store i32 %55, ptr %57, align 4, !tbaa !8
  %58 = load ptr, ptr %6, align 8, !tbaa !3
  %59 = getelementptr inbounds nuw %struct.mbedtls_net_context, ptr %58, i32 0, i32 0
  %60 = load i32, ptr %59, align 4, !tbaa !8
  %61 = icmp slt i32 %60, 0
  br i1 %61, label %62, label %63

62:                                               ; preds = %45
  store i32 -66, ptr %11, align 4, !tbaa !13
  br label %107

63:                                               ; preds = %45
  store i32 1, ptr %10, align 4, !tbaa !13
  %64 = load ptr, ptr %6, align 8, !tbaa !3
  %65 = getelementptr inbounds nuw %struct.mbedtls_net_context, ptr %64, i32 0, i32 0
  %66 = load i32, ptr %65, align 4, !tbaa !8
  %67 = call i32 @setsockopt(i32 noundef %66, i32 noundef 1, i32 noundef 2, ptr noundef %10, i32 noundef 4) #7
  %68 = icmp ne i32 %67, 0
  br i1 %68, label %69, label %74

69:                                               ; preds = %63
  %70 = load ptr, ptr %6, align 8, !tbaa !3
  %71 = getelementptr inbounds nuw %struct.mbedtls_net_context, ptr %70, i32 0, i32 0
  %72 = load i32, ptr %71, align 4, !tbaa !8
  %73 = call i32 @close(i32 noundef %72)
  store i32 -66, ptr %11, align 4, !tbaa !13
  br label %107

74:                                               ; preds = %63
  %75 = load ptr, ptr %6, align 8, !tbaa !3
  %76 = getelementptr inbounds nuw %struct.mbedtls_net_context, ptr %75, i32 0, i32 0
  %77 = load i32, ptr %76, align 4, !tbaa !8
  %78 = load ptr, ptr %14, align 8, !tbaa !20
  %79 = getelementptr inbounds nuw %struct.addrinfo, ptr %78, i32 0, i32 5
  %80 = load ptr, ptr %79, align 8, !tbaa !21
  %81 = load ptr, ptr %14, align 8, !tbaa !20
  %82 = getelementptr inbounds nuw %struct.addrinfo, ptr %81, i32 0, i32 4
  %83 = load i32, ptr %82, align 8, !tbaa !22
  %84 = call i32 @bind(i32 noundef %77, ptr noundef %80, i32 noundef %83) #7
  %85 = icmp ne i32 %84, 0
  br i1 %85, label %86, label %91

86:                                               ; preds = %74
  %87 = load ptr, ptr %6, align 8, !tbaa !3
  %88 = getelementptr inbounds nuw %struct.mbedtls_net_context, ptr %87, i32 0, i32 0
  %89 = load i32, ptr %88, align 4, !tbaa !8
  %90 = call i32 @close(i32 noundef %89)
  store i32 -70, ptr %11, align 4, !tbaa !13
  br label %107

91:                                               ; preds = %74
  %92 = load i32, ptr %9, align 4, !tbaa !13
  %93 = icmp eq i32 %92, 0
  br i1 %93, label %94, label %106

94:                                               ; preds = %91
  %95 = load ptr, ptr %6, align 8, !tbaa !3
  %96 = getelementptr inbounds nuw %struct.mbedtls_net_context, ptr %95, i32 0, i32 0
  %97 = load i32, ptr %96, align 4, !tbaa !8
  %98 = call i32 @listen(i32 noundef %97, i32 noundef 10) #7
  %99 = icmp ne i32 %98, 0
  br i1 %99, label %100, label %105

100:                                              ; preds = %94
  %101 = load ptr, ptr %6, align 8, !tbaa !3
  %102 = getelementptr inbounds nuw %struct.mbedtls_net_context, ptr %101, i32 0, i32 0
  %103 = load i32, ptr %102, align 4, !tbaa !8
  %104 = call i32 @close(i32 noundef %103)
  store i32 -72, ptr %11, align 4, !tbaa !13
  br label %107

105:                                              ; preds = %94
  br label %106

106:                                              ; preds = %105, %91
  store i32 0, ptr %11, align 4, !tbaa !13
  br label %111

107:                                              ; preds = %100, %86, %69, %62
  %108 = load ptr, ptr %14, align 8, !tbaa !20
  %109 = getelementptr inbounds nuw %struct.addrinfo, ptr %108, i32 0, i32 7
  %110 = load ptr, ptr %109, align 8, !tbaa !23
  store ptr %110, ptr %14, align 8, !tbaa !20
  br label %42, !llvm.loop !27

111:                                              ; preds = %106, %42
  %112 = load ptr, ptr %13, align 8, !tbaa !20
  call void @freeaddrinfo(ptr noundef %112) #7
  %113 = load i32, ptr %11, align 4, !tbaa !13
  store i32 %113, ptr %5, align 4
  store i32 1, ptr %15, align 4
  br label %114

114:                                              ; preds = %111, %39, %18
  call void @llvm.lifetime.end.p0(i64 8, ptr %14) #7
  call void @llvm.lifetime.end.p0(i64 8, ptr %13) #7
  call void @llvm.lifetime.end.p0(i64 48, ptr %12) #7
  call void @llvm.lifetime.end.p0(i64 4, ptr %11) #7
  call void @llvm.lifetime.end.p0(i64 4, ptr %10) #7
  %115 = load i32, ptr %5, align 4
  ret i32 %115
}