; Function Attrs: nounwind uwtable
define hidden range(i32 -82, 1) i32 @mbedtls_net_bind(ptr noundef captures(none) %0, ptr noundef %1, ptr noundef %2, i32 noundef %3) local_unnamed_addr #1 {
  %5 = alloca i32, align 4
  %6 = alloca %struct.addrinfo, align 8
  %7 = alloca ptr, align 8
  call void @llvm.lifetime.start.p0(i64 4, ptr nonnull %5) #9
  call void @llvm.lifetime.start.p0(i64 48, ptr nonnull %6) #9
  call void @llvm.lifetime.start.p0(i64 8, ptr nonnull %7) #9
  %8 = tail call ptr @__sysv_signal(i32 noundef 13, ptr noundef nonnull inttoptr (i64 1 to ptr)) #9
  %9 = icmp eq i32 %3, 1
  %10 = select i1 %9, i32 2, i32 1
  %11 = getelementptr inbounds nuw i8, ptr %6, i64 8
  call void @llvm.memset.p0.i64(ptr noundef nonnull align 8 dereferenceable(48) %6, i8 0, i64 48, i1 false)
  store i32 %10, ptr %11, align 8, !tbaa !8
  %12 = select i1 %9, i32 17, i32 6
  %13 = getelementptr inbounds nuw i8, ptr %6, i64 12
  store i32 %12, ptr %13, align 4, !tbaa !14
  %14 = icmp eq ptr %1, null
  br i1 %14, label %15, label %16

15:                                               ; preds = %4
  store i32 1, ptr %6, align 8, !tbaa !21
  br label %16

16:                                               ; preds = %15, %4
  %17 = call i32 @getaddrinfo(ptr noundef %1, ptr noundef %2, ptr noundef nonnull %6, ptr noundef nonnull %7) #9
  %.not = icmp eq i32 %17, 0
  br i1 %.not, label %.preheader, label %67

.preheader:                                       ; preds = %16
  %.030 = load ptr, ptr %7, align 8, !tbaa !15
  %.not2631 = icmp eq ptr %.030, null
  br i1 %.not2631, label %._crit_edge, label %.lr.ph

.lr.ph:                                           ; preds = %.preheader
  %18 = icmp eq i32 %3, 0
  br i1 %18, label %.lr.ph.split.us, label %.lr.ph.split

.lr.ph.split.us:                                  ; preds = %.lr.ph, %42
  %.032.us = phi ptr [ %.0.us, %42 ], [ %.030, %.lr.ph ]
  %19 = getelementptr inbounds nuw i8, ptr %.032.us, i64 4
  %20 = load i32, ptr %19, align 4, !tbaa !16
  %21 = getelementptr inbounds nuw i8, ptr %.032.us, i64 8
  %22 = load i32, ptr %21, align 8, !tbaa !8
  %23 = getelementptr inbounds nuw i8, ptr %.032.us, i64 12
  %24 = load i32, ptr %23, align 4, !tbaa !14
  %25 = call i32 @socket(i32 noundef %20, i32 noundef %22, i32 noundef %24) #9
  store i32 %25, ptr %0, align 4, !tbaa !3
  %26 = icmp slt i32 %25, 0
  br i1 %26, label %42, label %27

27:                                               ; preds = %.lr.ph.split.us
  store i32 1, ptr %5, align 4, !tbaa !22
  %28 = call i32 @setsockopt(i32 noundef %25, i32 noundef 1, i32 noundef 2, ptr noundef nonnull %5, i32 noundef 4) #9
  %.not27.us = icmp eq i32 %28, 0
  %29 = load i32, ptr %0, align 4, !tbaa !3
  br i1 %.not27.us, label %30, label %.sink.split

30:                                               ; preds = %27
  %31 = getelementptr inbounds nuw i8, ptr %.032.us, i64 24
  %32 = load ptr, ptr %31, align 8, !tbaa !17
  %33 = getelementptr inbounds nuw i8, ptr %.032.us, i64 16
  %34 = load i32, ptr %33, align 8, !tbaa !18
  %35 = call i32 @bind(i32 noundef %29, ptr noundef %32, i32 noundef %34) #9
  %.not28.us = icmp eq i32 %35, 0
  %36 = load i32, ptr %0, align 4, !tbaa !3
  br i1 %.not28.us, label %37, label %.sink.split

37:                                               ; preds = %30
  %38 = call i32 @listen(i32 noundef %36, i32 noundef 10) #9
  %.not29.us = icmp eq i32 %38, 0
  br i1 %.not29.us, label %._crit_edge, label %39

39:                                               ; preds = %37
  %40 = load i32, ptr %0, align 4, !tbaa !3
  br label %.sink.split

.sink.split:                                      ; preds = %30, %27, %39
  %.sink = phi i32 [ %40, %39 ], [ %29, %27 ], [ %36, %30 ]
  %.2.us.ph = phi i32 [ -72, %39 ], [ -66, %27 ], [ -70, %30 ]
  %41 = call i32 @close(i32 noundef %.sink) #9
  br label %42

42:                                               ; preds = %.sink.split, %.lr.ph.split.us
  %.2.us = phi i32 [ -66, %.lr.ph.split.us ], [ %.2.us.ph, %.sink.split ]
  %43 = getelementptr inbounds nuw i8, ptr %.032.us, i64 40
  %.0.us = load ptr, ptr %43, align 8, !tbaa !15
  %.not26.us = icmp eq ptr %.0.us, null
  br i1 %.not26.us, label %._crit_edge, label %.lr.ph.split.us, !llvm.loop !23

.lr.ph.split:                                     ; preds = %.lr.ph, %64
  %.032 = phi ptr [ %.0, %64 ], [ %.030, %.lr.ph ]
  %44 = getelementptr inbounds nuw i8, ptr %.032, i64 4
  %45 = load i32, ptr %44, align 4, !tbaa !16
  %46 = getelementptr inbounds nuw i8, ptr %.032, i64 8
  %47 = load i32, ptr %46, align 8, !tbaa !8
  %48 = getelementptr inbounds nuw i8, ptr %.032, i64 12
  %49 = load i32, ptr %48, align 4, !tbaa !14
  %50 = call i32 @socket(i32 noundef %45, i32 noundef %47, i32 noundef %49) #9
  store i32 %50, ptr %0, align 4, !tbaa !3
  %51 = icmp slt i32 %50, 0
  br i1 %51, label %64, label %52

52:                                               ; preds = %.lr.ph.split
  store i32 1, ptr %5, align 4, !tbaa !22
  %53 = call i32 @setsockopt(i32 noundef %50, i32 noundef 1, i32 noundef 2, ptr noundef nonnull %5, i32 noundef 4) #9
  %.not27 = icmp eq i32 %53, 0
  %54 = load i32, ptr %0, align 4, !tbaa !3
  br i1 %.not27, label %55, label %.sink.split42

55:                                               ; preds = %52
  %56 = getelementptr inbounds nuw i8, ptr %.032, i64 24
  %57 = load ptr, ptr %56, align 8, !tbaa !17
  %58 = getelementptr inbounds nuw i8, ptr %.032, i64 16
  %59 = load i32, ptr %58, align 8, !tbaa !18
  %60 = call i32 @bind(i32 noundef %54, ptr noundef %57, i32 noundef %59) #9
  %.not28 = icmp eq i32 %60, 0
  br i1 %.not28, label %._crit_edge, label %61

61:                                               ; preds = %55
  %62 = load i32, ptr %0, align 4, !tbaa !3
  br label %.sink.split42

.sink.split42:                                    ; preds = %52, %61
  %.sink43 = phi i32 [ %62, %61 ], [ %54, %52 ]
  %.2.ph = phi i32 [ -70, %61 ], [ -66, %52 ]
  %63 = call i32 @close(i32 noundef %.sink43) #9
  br label %64

64:                                               ; preds = %.sink.split42, %.lr.ph.split
  %.2 = phi i32 [ -66, %.lr.ph.split ], [ %.2.ph, %.sink.split42 ]
  %65 = getelementptr inbounds nuw i8, ptr %.032, i64 40
  %.0 = load ptr, ptr %65, align 8, !tbaa !15
  %.not26 = icmp eq ptr %.0, null
  br i1 %.not26, label %._crit_edge, label %.lr.ph.split, !llvm.loop !23

._crit_edge:                                      ; preds = %64, %55, %42, %37, %.preheader
  %.1 = phi i32 [ -82, %.preheader ], [ 0, %37 ], [ %.2.us, %42 ], [ 0, %55 ], [ %.2, %64 ]
  %66 = load ptr, ptr %7, align 8, !tbaa !15
  call void @freeaddrinfo(ptr noundef %66) #9
  br label %67

67:                                               ; preds = %16, %._crit_edge
  %.024 = phi i32 [ %.1, %._crit_edge ], [ -82, %16 ]
  call void @llvm.lifetime.end.p0(i64 8, ptr nonnull %7) #9
  call void @llvm.lifetime.end.p0(i64 48, ptr nonnull %6) #9
  call void @llvm.lifetime.end.p0(i64 4, ptr nonnull %5) #9
  ret i32 %.024
}